(dp0
I0
(dp1
S'salary'
p2
F201955.0
sS'long_term_incentive'
p3
F304805.0
sS'from_poi_ratio'
p4
F0.016195727084769126
sS'deferral_payments'
p5
F2869717.0
sS'total_payments'
p6
F4484442.0
sS'loan_advances'
p7
F0.0
sS'bonus'
p8
F4175000.0
sS'poi_ratio'
p9
F0.0219737100255052
sS'restricted_stock_deferred'
p10
F-126027.0
sS'total_stock_value'
p11
F1729541.0
sS'shared_receipt_with_poi'
p12
F1407.0
sS'exercised_stock_options'
p13
F1729541.0
sS'other'
p14
F152.0
sS'to_poi_ratio'
p15
F0.029612756264236904
sS'poi'
p16
I00
sS'deferred_income'
p17
F-3081055.0
sS'expenses'
p18
F13868.0
sS'restricted_stock'
p19
F126027.0
sS'director_fees'
p20
F0.0
ssI1
(dp21
g2
F0.0
sg3
F0.0
sg4
F0.0
sg5
F178980.0
sg6
F182466.0
sg7
F0.0
sg8
F0.0
sg9
F0.0
sg10
F0.0
sg11
F257817.0
sg12
F0.0
sg13
F257817.0
sg14
F0.0
sg15
F0.0
sg16
I00
sg17
F0.0
sg18
F3486.0
sg19
F0.0
sg20
F0.0
ssI2
(dp22
g2
F477.0
sg3
F0.0
sg4
F0.06890459363957598
sg5
F0.0
sg6
F916197.0
sg7
F0.0
sg8
F0.0
sg9
F0.06554621848739496
sg10
F-560222.0
sg11
F5243487.0
sg12
F465.0
sg13
F4046157.0
sg14
F864523.0
sg15
F0.0
sg16
I00
sg17
F-5104.0
sg18
F56301.0
sg19
F1757552.0
sg20
F0.0
ssI3
(dp23
g2
F267102.0
sg3
F1586055.0
sg4
F0.0
sg5
F1295738.0
sg6
F5634343.0
sg7
F0.0
sg8
F1200000.0
sg9
F0.0
sg10
F0.0
sg11
F10623258.0
sg12
F0.0
sg13
F6680544.0
sg14
F2660303.0
sg15
F0.0
sg16
I00
sg17
F-1386055.0
sg18
F11200.0
sg19
F3942714.0
sg20
F0.0
ssI4
(dp24
g2
F239671.0
sg3
F0.0
sg4
F0.0
sg5
F260455.0
sg6
F827696.0
sg7
F0.0
sg8
F400000.0
sg9
F0.0
sg10
F-82782.0
sg11
F63014.0
sg12
F0.0
sg13
F0.0
sg14
F69.0
sg15
F0.0
sg16
I00
sg17
F-201641.0
sg18
F129142.0
sg19
F145796.0
sg20
F0.0
ssI5
(dp25
g2
F80818.0
sg3
F93750.0
sg4
F0.0
sg5
F684694.0
sg6
F860136.0
sg7
F0.0
sg8
F0.0
sg9
F0.0
sg10
F0.0
sg11
F1599641.0
sg12
F0.0
sg13
F1599641.0
sg14
F874.0
sg15
F0.0
sg16
I00
sg17
F0.0
sg18
F0.0
sg19
F0.0
sg20
F0.0
ssI6
(dp26
g2
F231330.0
sg3
F0.0
sg4
F0.01968557758031442
sg5
F0.0
sg6
F969068.0
sg7
F0.0
sg8
F700000.0
sg9
F0.0454623434551381
sg10
F0.0
sg11
F126027.0
sg12
F2639.0
sg13
F0.0
sg14
F566.0
sg15
F0.08887865530739121
sg16
I00
sg17
F0.0
sg18
F37172.0
sg19
F126027.0
sg20
F0.0
ssI7
(dp27
g2
F213999.0
sg3
F0.0
sg4
F0.028532098610937303
sg5
F2144013.0
sg6
F5501630.0
sg7
F0.0
sg8
F5249999.0
sg9
F0.03964601769911504
sg10
F0.0
sg11
F1110705.0
sg12
F5521.0
sg13
F953136.0
sg14
F210698.0
sg15
F0.2231404958677686
sg16
I01
sg17
F-2334434.0
sg18
F17355.0
sg19
F157569.0
sg20
F0.0
ssI8
(dp28
g2
F0.0
sg3
F0.0
sg4
F0.0
sg5
F-102500.0
sg6
F102500.0
sg7
F0.0
sg8
F0.0
sg9
F0.0
sg10
F44093.0
sg11
F-44093.0
sg12
F0.0
sg13
F3285.0
sg14
F0.0
sg15
F0.0
sg16
I00
sg17
F0.0
sg18
F0.0
sg19
F0.0
sg20
F3285.0
ssI9
(dp29
g2
F216582.0
sg3
F0.0
sg4
F0.0
sg5
F0.0
sg6
F228474.0
sg7
F0.0
sg8
F0.0
sg9
F0.0
sg10
F0.0
sg11
F2493616.0
sg12
F0.0
sg13
F1624396.0
sg14
F0.0
sg15
F0.0
sg16
I00
sg17
F0.0
sg18
F11892.0
sg19
F869220.0
sg20
F0.0
ssI10
(dp30
g2
F187922.0
sg3
F180250.0
sg4
F0.010443864229765013
sg5
F0.0
sg6
F618850.0
sg7
F0.0
sg8
F250000.0
sg9
F0.00904977375565611
sg10
F0.0
sg11
F659249.0
sg12
F233.0
sg13
F0.0
sg14
F427316.0
sg15
F0.0
sg16
I00
sg17
F-485813.0
sg18
F59175.0
sg19
F659249.0
sg20
F0.0
ssI11
(dp31
g2
F0.0
sg3
F0.0
sg4
F0.0
sg5
F0.0
sg6
F15456290.0
sg7
F0.0
sg8
F0.0
sg9
F0.0018115942028985507
sg10
F15456290.0
sg11
F0.0
sg12
F463.0
sg13
F2604490.0
sg14
F137864.0
sg15
F0.034482758620689655
sg16
I00
sg17
F0.0
sg18
F0.0
sg19
F-2604490.0
sg20
F137864.0
ssI12
(dp32
g2
F213625.0
sg3
F369721.0
sg4
F0.01431238332296204
sg5
F0.0
sg6
F2047593.0
sg7
F0.0
sg8
F1000000.0
sg9
F0.018822100789313904
sg10
F0.0
sg11
F1843816.0
sg12
F1336.0
sg13
F1465734.0
sg14
F425688.0
sg15
F0.2
sg16
I00
sg17
F0.0
sg18
F38559.0
sg19
F378082.0
sg20
F0.0
ssI13
(dp33
g2
F248546.0
sg3
F831809.0
sg4
F0.010101010101010102
sg5
F0.0
sg6
F2014835.0
sg7
F0.0
sg8
F850000.0
sg9
F0.010847730012053034
sg10
F0.0
sg11
F954354.0
sg12
F2326.0
sg13
F765313.0
sg14
F272.0
sg15
F0.14285714285714285
sg16
I00
sg17
F0.0
sg18
F84208.0
sg19
F189041.0
sg20
F0.0
ssI14
(dp34
g2
F0.0
sg3
F0.0
sg4
F0.0
sg5
F0.0
sg6
F1279.0
sg7
F0.0
sg8
F0.0
sg9
F0.0
sg10
F0.0
sg11
F0.0
sg12
F0.0
sg13
F0.0
sg14
F0.0
sg15
F0.0
sg16
I00
sg17
F-113784.0
sg18
F1279.0
sg19
F0.0
sg20
F113784.0
ssI15
(dp35
g2
F278601.0
sg3
F974293.0
sg4
F0.07534983853606028
sg5
F0.0
sg6
F2669589.0
sg7
F0.0
sg8
F1350000.0
sg9
F0.08222811671087533
sg10
F0.0
sg11
F252055.0
sg12
F1593.0
sg13
F0.0
sg14
F1621.0
sg15
F0.5555555555555556
sg16
I01
sg17
F-833.0
sg18
F65907.0
sg19
F252055.0
sg20
F0.0
ssI16
(dp36
g2
F0.0
sg3
F0.0
sg4
F0.008748317631224764
sg5
F0.0
sg6
F49288.0
sg7
F0.0
sg8
F0.0
sg9
F0.0091683038637852
sg10
F0.0
sg11
F0.0
sg12
F761.0
sg13
F0.0
sg14
F0.0
sg15
F0.024390243902439025
sg16
I00
sg17
F0.0
sg18
F49288.0
sg19
F0.0
sg20
F0.0
ssI17
(dp37
g2
F248017.0
sg3
F304805.0
sg4
F0.0
sg5
F0.0
sg6
F1054637.0
sg7
F0.0
sg8
F500000.0
sg9
F0.0
sg10
F0.0
sg11
F1014505.0
sg12
F23.0
sg13
F825464.0
sg14
F1215.0
sg15
F0.0
sg16
I00
sg17
F0.0
sg18
F600.0
sg19
F189041.0
sg20
F0.0
ssI18
(dp38
g2
F261516.0
sg3
F175000.0
sg4
F0.0
sg5
F0.0
sg6
F1271582.0
sg7
F0.0
sg8
F750000.0
sg9
F0.0
sg10
F0.0
sg11
F417619.0
sg12
F0.0
sg13
F0.0
sg14
F150656.0
sg15
F0.0
sg16
I00
sg17
F-75000.0
sg18
F9410.0
sg19
F417619.0
sg20
F0.0
ssI19
(dp39
g2
F330546.0
sg3
F769862.0
sg4
F0.04428044280442804
sg5
F649584.0
sg6
F2355702.0
sg7
F0.0
sg8
F900000.0
sg9
F0.04960664335664336
sg10
F0.0
sg11
F3444470.0
sg12
F2333.0
sg13
F2542813.0
sg14
F400572.0
sg15
F0.06742640075973409
sg16
I00
sg17
F-694862.0
sg18
F0.0
sg19
F901657.0
sg20
F0.0
ssI20
(dp40
g2
F240189.0
sg3
F375304.0
sg4
F0.07659738260200154
sg5
F0.0
sg6
F1639297.0
sg7
F0.0
sg8
F1250000.0
sg9
F0.08169219547775347
sg10
F0.0
sg11
F126027.0
sg12
F2188.0
sg13
F0.0
sg14
F486.0
sg15
F0.1736111111111111
sg16
I01
sg17
F-262500.0
sg18
F35818.0
sg19
F126027.0
sg20
F0.0
ssI21
(dp41
g2
F261809.0
sg3
F75000.0
sg4
F0.09294871794871795
sg5
F0.0
sg6
F477557.0
sg7
F0.0
sg8
F300000.0
sg9
F0.11009174311926606
sg10
F-307301.0
sg11
F0.0
sg12
F196.0
sg13
F0.0
sg14
F540.0
sg15
F0.4666666666666667
sg16
I00
sg17
F-159792.0
sg18
F0.0
sg19
F307301.0
sg20
F0.0
ssI22
(dp42
g2
F415189.0
sg3
F350000.0
sg4
F0.0306553911205074
sg5
F0.0
sg6
F1868758.0
sg7
F0.0
sg8
F1000000.0
sg9
F0.03606388459556929
sg10
F0.0
sg11
F2502063.0
sg12
F1585.0
sg13
F0.0
sg14
F307895.0
sg15
F0.24489795918367346
sg16
I01
sg17
F-235000.0
sg18
F30674.0
sg19
F2502063.0
sg20
F0.0
ssI23
(dp43
g2
F0.0
sg3
F0.0
sg4
F0.0
sg5
F0.0
sg6
F0.0
sg7
F0.0
sg8
F0.0
sg9
F0.0
sg10
F-32460.0
sg11
F0.0
sg12
F0.0
sg13
F0.0
sg14
F0.0
sg15
F0.0
sg16
I00
sg17
F-98784.0
sg18
F0.0
sg19
F32460.0
sg20
F98784.0
ssI24
(dp44
g2
F0.0
sg3
F0.0
sg4
F0.0
sg5
F0.0
sg6
F0.0
sg7
F0.0
sg8
F0.0
sg9
F0.0
sg10
F0.0
sg11
F6077885.0
sg12
F0.0
sg13
F5127155.0
sg14
F0.0
sg15
F0.0
sg16
I00
sg17
F0.0
sg18
F0.0
sg19
F950730.0
sg20
F0.0
ssI25
(dp45
g2
F0.0
sg3
F0.0
sg4
F0.0
sg5
F0.0
sg6
F0.0
sg7
F0.0
sg8
F0.0
sg9
F0.0
sg10
F-472568.0
sg11
F189518.0
sg12
F0.0
sg13
F0.0
sg14
F0.0
sg15
F0.0
sg16
I00
sg17
F0.0
sg18
F0.0
sg19
F662086.0
sg20
F0.0
ssI26
(dp46
g2
F288542.0
sg3
F0.0
sg4
F0.13651877133105803
sg5
F27610.0
sg6
F1490344.0
sg7
F0.0
sg8
F1200000.0
sg9
F0.13959955506117908
sg10
F0.0
sg11
F698242.0
sg12
F1132.0
sg13
F0.0
sg14
F101740.0
sg15
F0.275
sg16
I01
sg17
F-144062.0
sg18
F16514.0
sg19
F698242.0
sg20
F0.0
ssI27
(dp47
g2
F0.0
sg3
F0.0
sg4
F0.013089005235602094
sg5
F0.0
sg6
F0.0
sg7
F0.0
sg8
F0.0
sg9
F0.01288659793814433
sg10
F0.0
sg11
F1038185.0
sg12
F58.0
sg13
F651850.0
sg14
F0.0
sg15
F0.0
sg16
I00
sg17
F0.0
sg18
F0.0
sg19
F386335.0
sg20
F0.0
ssI28
(dp48
g2
F314288.0
sg3
F0.0
sg4
F0.0
sg5
F0.0
sg6
F1101393.0
sg7
F0.0
sg8
F800000.0
sg9
F0.02962962962962963
sg10
F0.0
sg11
F495633.0
sg12
F71.0
sg13
F117551.0
sg14
F494.0
sg15
F0.12121212121212122
sg16
I00
sg17
F-41250.0
sg18
F27861.0
sg19
F378082.0
sg20
F0.0
ssI29
(dp49
g2
F184899.0
sg3
F275000.0
sg4
F0.0
sg5
F0.0
sg6
F807956.0
sg7
F0.0
sg8
F325000.0
sg9
F0.0
sg10
F0.0
sg11
F207940.0
sg12
F0.0
sg13
F0.0
sg14
F713.0
sg15
F0.0
sg16
I00
sg17
F0.0
sg18
F22344.0
sg19
F207940.0
sg20
F0.0
ssI30
(dp50
g2
F206121.0
sg3
F335349.0
sg4
F0.16106442577030813
sg5
F0.0
sg6
F1208649.0
sg7
F0.0
sg8
F600000.0
sg9
F0.15101522842639595
sg10
F0.0
sg11
F159211.0
sg12
F552.0
sg13
F17378.0
sg14
F25553.0
sg15
F0.05405405405405406
sg16
I00
sg17
F0.0
sg18
F41626.0
sg19
F141833.0
sg20
F0.0
ssI31
(dp51
g2
F365163.0
sg3
F1294981.0
sg4
F0.02133850630455868
sg5
F0.0
sg6
F4747979.0
sg7
F0.0
sg8
F3000000.0
sg9
F0.10954235637779941
sg10
F0.0
sg11
F3614261.0
sg12
F2097.0
sg13
F2291113.0
sg14
F1661.0
sg15
F0.198435972629521
sg16
I01
sg17
F0.0
sg18
F86174.0
sg19
F1323148.0
sg20
F0.0
ssI32
(dp52
g2
F492375.0
sg3
F484000.0
sg4
F0.029344337459880788
sg5
F0.0
sg6
F550981.0
sg7
F0.0
sg8
F800000.0
sg9
F0.027184466019417475
sg10
F-1787380.0
sg11
F8831913.0
sg12
F1401.0
sg13
F8831913.0
sg14
F7482.0
sg15
F0.022002200220022004
sg16
I00
sg17
F-1284000.0
sg18
F51124.0
sg19
F1787380.0
sg20
F0.0
ssI33
(dp53
g2
F210500.0
sg3
F415657.0
sg4
F0.0
sg5
F875307.0
sg6
F1204583.0
sg7
F0.0
sg8
F425000.0
sg9
F0.0
sg10
F-315068.0
sg11
F2027865.0
sg12
F0.0
sg13
F2027865.0
sg14
F1105.0
sg15
F0.0
sg16
I00
sg17
F-775241.0
sg18
F52255.0
sg19
F315068.0
sg20
F0.0
ssI34
(dp54
g2
F250100.0
sg3
F556416.0
sg4
F0.11858475894245724
sg5
F0.0
sg6
F1410464.0
sg7
F0.0
sg8
F600000.0
sg9
F0.12106261859582543
sg10
F0.0
sg11
F1865087.0
sg12
F1902.0
sg13
F1550019.0
sg14
F473.0
sg15
F0.2222222222222222
sg16
I00
sg17
F0.0
sg18
F3475.0
sg19
F315068.0
sg20
F0.0
ssI35
(dp55
g2
F262788.0
sg3
F694862.0
sg4
F0.0
sg5
F0.0
sg6
F2368151.0
sg7
F0.0
sg8
F1000000.0
sg9
F0.0
sg10
F0.0
sg11
F8317782.0
sg12
F0.0
sg13
F8191755.0
sg14
F374689.0
sg15
F0.0
sg16
I00
sg17
F0.0
sg18
F35812.0
sg19
F126027.0
sg20
F0.0
ssI36
(dp56
g2
F221003.0
sg3
F0.0
sg4
F0.056818181818181816
sg5
F0.0
sg6
F319941.0
sg7
F0.0
sg8
F70000.0
sg9
F0.06842105263157895
sg10
F0.0
sg11
F0.0
sg12
F114.0
sg13
F0.0
sg14
F774.0
sg15
F0.21428571428571427
sg16
I00
sg17
F0.0
sg18
F28164.0
sg19
F0.0
sg20
F0.0
ssI37
(dp57
g2
F278601.0
sg3
F0.0
sg4
F0.21734104046242775
sg5
F0.0
sg6
F875760.0
sg7
F0.0
sg8
F800000.0
sg9
F0.22435174746335965
sg10
F0.0
sg11
F1080988.0
sg12
F772.0
sg13
F765920.0
sg14
F891.0
sg15
F0.5
sg16
I00
sg17
F-300000.0
sg18
F96268.0
sg19
F315068.0
sg20
F0.0
ssI38
(dp58
g2
F0.0
sg3
F0.0
sg4
F0.0
sg5
F0.0
sg6
F77492.0
sg7
F0.0
sg8
F0.0
sg9
F0.0
sg10
F0.0
sg11
F371750.0
sg12
F0.0
sg13
F371750.0
sg14
F0.0
sg15
F0.0
sg16
I00
sg17
F-25000.0
sg18
F0.0
sg19
F0.0
sg20
F102492.0
ssI39
(dp59
g2
F210692.0
sg3
F1105218.0
sg4
F0.1172566371681416
sg5
F0.0
sg6
F2093263.0
sg7
F0.0
sg8
F750000.0
sg9
F0.11899563318777293
sg10
F0.0
sg11
F1640910.0
sg12
F599.0
sg13
F1451869.0
sg14
F1568.0
sg15
F0.25
sg16
I00
sg17
F0.0
sg18
F25785.0
sg19
F189041.0
sg20
F0.0
ssI40
(dp60
g2
F182245.0
sg3
F2234774.0
sg4
F0.0
sg5
F0.0
sg6
F2692324.0
sg7
F0.0
sg8
F200000.0
sg9
F0.0
sg10
F0.0
sg11
F1008941.0
sg12
F0.0
sg13
F601438.0
sg14
F53775.0
sg15
F0.0
sg16
I00
sg17
F0.0
sg18
F21530.0
sg19
F407503.0
sg20
F0.0
ssI41
(dp61
g2
F170941.0
sg3
F0.0
sg4
F0.0
sg5
F0.0
sg6
F211725.0
sg7
F0.0
sg8
F350000.0
sg9
F0.0
sg10
F0.0
sg11
F6678735.0
sg12
F0.0
sg13
F4890344.0
sg14
F12961.0
sg15
F0.0
sg16
I00
sg17
F-400729.0
sg18
F78552.0
sg19
F1788391.0
sg20
F0.0
ssI42
(dp62
g2
F304588.0
sg3
F374347.0
sg4
F0.023931623931623933
sg5
F0.0
sg6
F3676340.0
sg7
F0.0
sg8
F2500000.0
sg9
F0.04316939890710383
sg10
F0.0
sg11
F2332399.0
sg12
F1604.0
sg13
F940257.0
sg14
F401481.0
sg15
F0.49333333333333335
sg16
I00
sg17
F0.0
sg18
F95924.0
sg19
F1392142.0
sg20
F0.0
ssI43
(dp63
g2
F440698.0
sg3
F1736055.0
sg4
F0.0
sg5
F0.0
sg6
F2424083.0
sg7
F0.0
sg8
F1300000.0
sg9
F0.0
sg10
F0.0
sg11
F1794412.0
sg12
F0.0
sg13
F0.0
sg14
F277464.0
sg15
F0.0
sg16
I01
sg17
F-1386055.0
sg18
F55921.0
sg19
F1794412.0
sg20
F0.0
ssI44
(dp64
g2
F199157.0
sg3
F556416.0
sg4
F0.0010683760683760685
sg5
F0.0
sg6
F1414857.0
sg7
F0.0
sg8
F350000.0
sg9
F0.009453781512605041
sg10
F0.0
sg11
F1621236.0
sg12
F723.0
sg13
F664461.0
sg14
F285414.0
sg15
F0.5
sg16
I00
sg17
F0.0
sg18
F23870.0
sg19
F956775.0
sg20
F0.0
ssI45
(dp65
g2
F0.0
sg3
F0.0
sg4
F0.0
sg5
F0.0
sg6
F0.0
sg7
F0.0
sg8
F0.0
sg9
F0.0
sg10
F0.0
sg11
F1884748.0
sg12
F10.0
sg13
F1324578.0
sg14
F0.0
sg15
F0.0
sg16
I00
sg17
F0.0
sg18
F0.0
sg19
F560170.0
sg20
F0.0
ssI46
(dp66
g2
F0.0
sg3
F0.0
sg4
F0.0
sg5
F181755.0
sg6
F181755.0
sg7
F0.0
sg8
F0.0
sg9
F0.0
sg10
F0.0
sg11
F343434.0
sg12
F2.0
sg13
F343434.0
sg14
F0.0
sg15
F0.0
sg16
I00
sg17
F0.0
sg18
F0.0
sg19
F0.0
sg20
F0.0
ssI47
(dp67
g2
F1060932.0
sg3
F1617011.0
sg4
F0.07389312977099237
sg5
F6426990.0
sg6
F17252530.0
sg7
F2000000.0
sg8
F2000000.0
sg9
F0.07524271844660194
sg10
F0.0
sg11
F14622185.0
sg12
F2979.0
sg13
F10433518.0
sg14
F7427621.0
sg15
F0.2857142857142857
sg16
I00
sg17
F-3367011.0
sg18
F86987.0
sg19
F4188667.0
sg20
F0.0
ssI48
(dp68
g2
F0.0
sg3
F0.0
sg4
F0.0
sg5
F50591.0
sg6
F50591.0
sg7
F0.0
sg8
F0.0
sg9
F0.0
sg10
F0.0
sg11
F176378.0
sg12
F0.0
sg13
F176378.0
sg14
F0.0
sg15
F0.0
sg16
I00
sg17
F0.0
sg18
F0.0
sg19
F0.0
sg20
F0.0
ssI49
(dp69
g2
F192008.0
sg3
F0.0
sg4
F0.0
sg5
F73122.0
sg6
F900585.0
sg7
F0.0
sg8
F509870.0
sg9
F0.0
sg10
F0.0
sg11
F318607.0
sg12
F0.0
sg13
F83237.0
sg14
F76547.0
sg15
F0.0
sg16
I00
sg17
F-1042.0
sg18
F50080.0
sg19
F235370.0
sg20
F0.0
ssI50
(dp70
g2
F231946.0
sg3
F375304.0
sg4
F0.04784688995215311
sg5
F0.0
sg6
F1566469.0
sg7
F0.0
sg8
F850000.0
sg9
F0.14624505928853754
sg10
F0.0
sg11
F896153.0
sg12
F178.0
sg13
F636246.0
sg14
F60814.0
sg15
F0.6136363636363636
sg16
I00
sg17
F0.0
sg18
F48405.0
sg19
F259907.0
sg20
F0.0
ssI51
(dp71
g2
F0.0
sg3
F0.0
sg4
F0.0
sg5
F0.0
sg6
F0.0
sg7
F0.0
sg8
F0.0
sg9
F0.0
sg10
F-72419.0
sg11
F1945360.0
sg12
F0.0
sg13
F1753766.0
sg14
F0.0
sg15
F0.0
sg16
I00
sg17
F0.0
sg18
F0.0
sg19
F264013.0
sg20
F0.0
ssI52
(dp72
g2
F0.0
sg3
F461912.0
sg4
F0.0
sg5
F504610.0
sg6
F966522.0
sg7
F0.0
sg8
F0.0
sg9
F0.0
sg10
F0.0
sg11
F2218275.0
sg12
F23.0
sg13
F2218275.0
sg14
F0.0
sg15
F0.0
sg16
I00
sg17
F0.0
sg18
F0.0
sg19
F0.0
sg20
F0.0
ssI53
(dp73
g2
F0.0
sg3
F0.0
sg4
F0.0
sg5
F0.0
sg6
F0.0
sg7
F0.0
sg8
F0.0
sg9
F0.0
sg10
F0.0
sg11
F85641.0
sg12
F0.0
sg13
F9803.0
sg14
F0.0
sg15
F0.0
sg16
I00
sg17
F0.0
sg18
F0.0
sg19
F75838.0
sg20
F0.0
ssI54
(dp74
g2
F274975.0
sg3
F71023.0
sg4
F0.05956471935853379
sg5
F0.0
sg6
F1272284.0
sg7
F0.0
sg8
F600000.0
sg9
F0.06524184476940383
sg10
F0.0
sg11
F778546.0
sg12
F874.0
sg13
F384728.0
sg14
F200308.0
sg15
F0.375
sg16
I01
sg17
F0.0
sg18
F125978.0
sg19
F393818.0
sg20
F0.0
ssI55
(dp75
g2
F272880.0
sg3
F304805.0
sg4
F0.0
sg5
F0.0
sg6
F2146973.0
sg7
F0.0
sg8
F750000.0
sg9
F0.0
sg10
F0.0
sg11
F877611.0
sg12
F0.0
sg13
F436515.0
sg14
F819288.0
sg15
F0.0
sg16
I00
sg17
F0.0
sg18
F0.0
sg19
F441096.0
sg20
F0.0
ssI56
(dp76
g2
F0.0
sg3
F0.0
sg4
F0.0
sg5
F0.0
sg6
F119292.0
sg7
F0.0
sg8
F0.0
sg9
F0.0
sg10
F0.0
sg11
F0.0
sg12
F0.0
sg13
F0.0
sg14
F0.0
sg15
F0.0
sg16
I00
sg17
F0.0
sg18
F0.0
sg19
F0.0
sg20
F119292.0
ssI57
(dp77
g2
F6615.0
sg3
F365625.0
sg4
F0.0
sg5
F93585.0
sg6
F1146658.0
sg7
F0.0
sg8
F0.0
sg9
F0.0
sg10
F0.0
sg11
F0.0
sg12
F0.0
sg13
F0.0
sg14
F680833.0
sg15
F0.0
sg16
I00
sg17
F0.0
sg18
F0.0
sg19
F0.0
sg20
F0.0
ssI58
(dp78
g2
F374125.0
sg3
F983346.0
sg4
F0.04489897730107259
sg5
F2157527.0
sg6
F3859065.0
sg7
F0.0
sg8
F1150000.0
sg9
F0.04050420168067227
sg10
F-329825.0
sg11
F803094.0
sg12
F1847.0
sg13
F608750.0
sg14
F52382.0
sg15
F0.03142709943328181
sg16
I00
sg17
F-934484.0
sg18
F76169.0
sg19
F524169.0
sg20
F0.0
ssI59
(dp79
g2
F243293.0
sg3
F1617011.0
sg4
F0.03062200956937799
sg5
F0.0
sg6
F288682.0
sg7
F0.0
sg8
F1500000.0
sg9
F0.04921077065923862
sg10
F0.0
sg11
F6391065.0
sg12
F1035.0
sg13
F5538001.0
sg14
F11350.0
sg15
F0.65625
sg16
I01
sg17
F-3117011.0
sg18
F34039.0
sg19
F853064.0
sg20
F0.0
ssI60
(dp80
g2
F0.0
sg3
F0.0
sg4
F0.006980802792321117
sg5
F0.0
sg6
F475.0
sg7
F0.0
sg8
F0.0
sg9
F0.018581081081081082
sg10
F0.0
sg11
F2217299.0
sg12
F471.0
sg13
F0.0
sg14
F0.0
sg15
F0.3684210526315789
sg16
I00
sg17
F0.0
sg18
F475.0
sg19
F2217299.0
sg20
F0.0
ssI61
(dp81
g2
F0.0
sg3
F0.0
sg4
F0.031746031746031744
sg5
F7961.0
sg6
F7961.0
sg7
F0.0
sg8
F0.0
sg9
F0.031007751937984496
sg10
F0.0
sg11
F151418.0
sg12
F50.0
sg13
F0.0
sg14
F0.0
sg15
F0.0
sg16
I00
sg17
F0.0
sg18
F0.0
sg19
F151418.0
sg20
F0.0
ssI62
(dp82
g2
F0.0
sg3
F0.0
sg4
F0.01321253303133258
sg5
F0.0
sg6
F0.0
sg7
F0.0
sg8
F0.0
sg9
F0.019676549865229112
sg10
F0.0
sg11
F346663.0
sg12
F571.0
sg13
F0.0
sg14
F0.0
sg15
F0.03581526861451461
sg16
I00
sg17
F0.0
sg18
F0.0
sg19
F346663.0
sg20
F0.0
ssI63
(dp83
g2
F262663.0
sg3
F150000.0
sg4
F0.0
sg5
F0.0
sg6
F1297461.0
sg7
F0.0
sg8
F700000.0
sg9
F0.0
sg10
F0.0
sg11
F668132.0
sg12
F0.0
sg13
F187500.0
sg14
F416441.0
sg15
F0.0
sg16
I00
sg17
F-280000.0
sg18
F48357.0
sg19
F480632.0
sg20
F0.0
ssI64
(dp84
g2
F211788.0
sg3
F69223.0
sg4
F0.030303030303030304
sg5
F0.0
sg6
F2081796.0
sg7
F0.0
sg8
F1700000.0
sg9
F0.030438010393466965
sg10
F0.0
sg11
F441096.0
sg12
F900.0
sg13
F0.0
sg14
F1936.0
sg15
F0.037037037037037035
sg16
I00
sg17
F0.0
sg18
F98849.0
sg19
F441096.0
sg20
F0.0
ssI65
(dp85
g2
F0.0
sg3
F0.0
sg4
F0.0
sg5
F10259.0
sg6
F91093.0
sg7
F0.0
sg8
F0.0
sg9
F0.0
sg10
F0.0
sg11
F30766064.0
sg12
F0.0
sg13
F30766064.0
sg14
F2856.0
sg15
F0.0
sg16
I01
sg17
F0.0
sg18
F77978.0
sg19
F0.0
sg20
F0.0
ssI66
(dp86
g2
F0.0
sg3
F0.0
sg4
F0.01872340425531915
sg5
F3131860.0
sg6
F3131860.0
sg7
F0.0
sg8
F0.0
sg9
F0.017236342389716622
sg10
F0.0
sg11
F7256648.0
sg12
F1074.0
sg13
F5210569.0
sg14
F0.0
sg15
F0.013979496738117428
sg16
I00
sg17
F0.0
sg18
F0.0
sg19
F2046079.0
sg20
F0.0
ssI67
(dp87
g2
F0.0
sg3
F0.0
sg4
F0.048678720445062586
sg5
F0.0
sg6
F0.0
sg7
F0.0
sg8
F0.0
sg9
F0.05312084993359894
sg10
F0.0
sg11
F1118394.0
sg12
F589.0
sg13
F754966.0
sg14
F0.0
sg15
F0.14705882352941177
sg16
I00
sg17
F0.0
sg18
F0.0
sg19
F363428.0
sg20
F0.0
ssI68
(dp88
g2
F130724.0
sg3
F0.0
sg4
F0.078125
sg5
F2964506.0
sg6
F3100224.0
sg7
F0.0
sg8
F0.0
sg9
F0.18620689655172415
sg10
F0.0
sg11
F2282768.0
sg12
F119.0
sg13
F2282768.0
sg14
F0.0
sg15
F1.0
sg16
I00
sg17
F0.0
sg18
F4994.0
sg19
F0.0
sg20
F0.0
ssI69
(dp89
g2
F85274.0
sg3
F312500.0
sg4
F0.056451612903225805
sg5
F0.0
sg6
F1979596.0
sg7
F0.0
sg8
F0.0
sg9
F0.06407766990291262
sg10
F0.0
sg11
F5819980.0
sg12
F437.0
sg13
F2165172.0
sg14
F1553729.0
sg15
F0.2631578947368421
sg16
I00
sg17
F0.0
sg18
F28093.0
sg19
F3654808.0
sg20
F0.0
ssI70
(dp90
g2
F288558.0
sg3
F0.0
sg4
F0.09689922480620156
sg5
F0.0
sg6
F551174.0
sg7
F0.0
sg8
F250000.0
sg9
F0.14012738853503184
sg10
F0.0
sg11
F725735.0
sg12
F117.0
sg13
F185063.0
sg14
F2435.0
sg15
F0.3392857142857143
sg16
I00
sg17
F0.0
sg18
F10181.0
sg19
F540672.0
sg20
F0.0
ssI71
(dp91
g2
F0.0
sg3
F0.0
sg4
F0.0
sg5
F0.0
sg6
F83750.0
sg7
F0.0
sg8
F0.0
sg9
F0.0
sg10
F-44093.0
sg11
F431750.0
sg12
F0.0
sg13
F431750.0
sg14
F0.0
sg15
F0.0
sg16
I00
sg17
F-25000.0
sg18
F0.0
sg19
F44093.0
sg20
F108750.0
ssI72
(dp92
g2
F275101.0
sg3
F323466.0
sg4
F0.008899500759713479
sg5
F0.0
sg6
F1086821.0
sg7
F0.0
sg8
F400000.0
sg9
F0.011172595520421607
sg10
F0.0
sg11
F976037.0
sg12
F583.0
sg13
F850010.0
sg14
F4669.0
sg15
F0.011901447661469933
sg16
I00
sg17
F0.0
sg18
F83585.0
sg19
F126027.0
sg20
F0.0
ssI73
(dp93
g2
F404338.0
sg3
F300000.0
sg4
F0.010976948408342482
sg5
F0.0
sg6
F1747522.0
sg7
F0.0
sg8
F1000000.0
sg9
F0.02700763593501768
sg10
F0.0
sg11
F6153642.0
sg12
F3639.0
sg13
F2022048.0
sg14
F1231.0
sg15
F0.05725699067909454
sg16
I00
sg17
F0.0
sg18
F41953.0
sg19
F4131594.0
sg20
F0.0
ssI74
(dp94
g2
F174246.0
sg3
F0.0
sg4
F0.0
sg5
F0.0
sg6
F704896.0
sg7
F0.0
sg8
F0.0
sg9
F0.0
sg10
F0.0
sg11
F1034346.0
sg12
F0.0
sg13
F0.0
sg14
F465357.0
sg15
F0.0
sg16
I00
sg17
F-51042.0
sg18
F116335.0
sg19
F1034346.0
sg20
F0.0
ssI75
(dp95
g2
F271442.0
sg3
F0.0
sg4
F0.030222757375075255
sg5
F0.0
sg6
F3471141.0
sg7
F0.0
sg8
F3100000.0
sg9
F0.044353633011063494
sg10
F0.0
sg11
F547143.0
sg12
F3669.0
sg13
F81042.0
sg14
F93925.0
sg15
F0.11226851851851852
sg16
I00
sg17
F0.0
sg18
F5774.0
sg19
F466101.0
sg20
F0.0
ssI76
(dp96
g2
F309946.0
sg3
F300000.0
sg4
F0.02232518955349621
sg5
F0.0
sg6
F1587421.0
sg7
F0.0
sg8
F700000.0
sg9
F0.02792607802874743
sg10
F0.0
sg11
F1920055.0
sg12
F2271.0
sg13
F671737.0
sg14
F150458.0
sg15
F0.2459016393442623
sg16
I01
sg17
F0.0
sg18
F127017.0
sg19
F1248318.0
sg20
F0.0
ssI77
(dp97
g2
F224305.0
sg3
F602671.0
sg4
F0.0
sg5
F0.0
sg6
F2652612.0
sg7
F0.0
sg8
F800000.0
sg9
F0.0
sg10
F0.0
sg11
F985032.0
sg12
F0.0
sg13
F0.0
sg14
F907502.0
sg15
F0.0
sg16
I01
sg17
F0.0
sg18
F118134.0
sg19
F985032.0
sg20
F0.0
ssI78
(dp98
g2
F339288.0
sg3
F2035380.0
sg4
F0.07273729163796666
sg5
F0.0
sg6
F10425757.0
sg7
F0.0
sg8
F8000000.0
sg9
F0.09538805363673304
sg10
F0.0
sg11
F5167144.0
sg12
F3962.0
sg13
F4158995.0
sg14
F1552.0
sg15
F0.15899419729206962
sg16
I00
sg17
F0.0
sg18
F49537.0
sg19
F1008149.0
sg20
F0.0
ssI79
(dp99
g2
F1072321.0
sg3
F3600000.0
sg4
F0.028785396676807865
sg5
F202911.0
sg6
F103559793.0
sg7
F81525000.0
sg8
F7000000.0
sg9
F0.03225806451612903
sg10
F0.0
sg11
F49110078.0
sg12
F2411.0
sg13
F34348384.0
sg14
F10359729.0
sg15
F0.4444444444444444
sg16
I01
sg17
F-300000.0
sg18
F99832.0
sg19
F14761694.0
sg20
F0.0
ssI80
(dp100
g2
F273746.0
sg3
F1387399.0
sg4
F0.02374202693125443
sg5
F0.0
sg6
F2664228.0
sg7
F0.0
sg8
F1000000.0
sg9
F0.028076256499133447
sg10
F0.0
sg11
F360528.0
sg12
F2672.0
sg13
F0.0
sg14
F3083.0
sg15
F0.2222222222222222
sg16
I00
sg17
F0.0
sg18
F0.0
sg19
F360528.0
sg20
F0.0
ssI81
(dp101
g2
F0.0
sg3
F0.0
sg4
F0.0
sg5
F0.0
sg6
F87492.0
sg7
F0.0
sg8
F0.0
sg9
F0.0
sg10
F0.0
sg11
F412878.0
sg12
F0.0
sg13
F412878.0
sg14
F0.0
sg15
F0.0
sg16
I00
sg17
F-25000.0
sg18
F0.0
sg19
F0.0
sg20
F112492.0
ssI82
(dp102
g2
F0.0
sg3
F0.0
sg4
F0.01050420168067227
sg5
F0.0
sg6
F0.0
sg7
F0.0
sg8
F0.0
sg9
F0.010224948875255624
sg10
F0.0
sg11
F850477.0
sg12
F739.0
sg13
F850477.0
sg14
F0.0
sg15
F0.0
sg16
I00
sg17
F0.0
sg18
F0.0
sg19
F0.0
sg20
F0.0
ssI83
(dp103
g2
F236457.0
sg3
F175000.0
sg4
F0.0
sg5
F204075.0
sg6
F875889.0
sg7
F0.0
sg8
F200000.0
sg9
F0.0
sg10
F0.0
sg11
F3064208.0
sg12
F0.0
sg13
F2549361.0
sg14
F2630.0
sg15
F0.0
sg16
I00
sg17
F0.0
sg18
F57727.0
sg19
F514847.0
sg20
F0.0
ssI84
(dp104
g2
F0.0
sg3
F0.0
sg4
F0.0
sg5
F0.0
sg6
F0.0
sg7
F0.0
sg8
F0.0
sg9
F0.0
sg10
F0.0
sg11
F0.0
sg12
F0.0
sg13
F0.0
sg14
F0.0
sg15
F0.0
sg16
I00
sg17
F0.0
sg18
F0.0
sg19
F0.0
sg20
F0.0
ssI85
(dp105
g2
F0.0
sg3
F0.0
sg4
F0.0
sg5
F0.0
sg6
F0.0
sg7
F0.0
sg8
F0.0
sg9
F0.0
sg10
F-153686.0
sg11
F372205.0
sg12
F0.0
sg13
F372205.0
sg14
F0.0
sg15
F0.0
sg16
I00
sg17
F0.0
sg18
F0.0
sg19
F153686.0
sg20
F0.0
ssI86
(dp106
g2
F349487.0
sg3
F5145434.0
sg4
F0.005256241787122208
sg5
F85430.0
sg6
F8407016.0
sg7
F0.0
sg8
F0.0
sg9
F0.0045662100456621
sg10
F0.0
sg11
F2070306.0
sg12
F477.0
sg13
F2070306.0
sg14
F2818454.0
sg15
F0.0
sg16
I00
sg17
F0.0
sg18
F8211.0
sg19
F0.0
sg20
F0.0
ssI87
(dp107
g2
F0.0
sg3
F0.0
sg4
F0.017445917655268667
sg5
F0.0
sg6
F0.0
sg7
F0.0
sg8
F0.0
sg9
F0.016383495145631068
sg10
F0.0
sg11
F758931.0
sg12
F508.0
sg13
F664375.0
sg14
F0.0
sg15
F0.009302325581395349
sg16
I00
sg17
F0.0
sg18
F0.0
sg19
F94556.0
sg20
F0.0
ssI88
(dp108
g2
F263413.0
sg3
F0.0
sg4
F0.02981651376146789
sg5
F0.0
sg6
F1318763.0
sg7
F0.0
sg8
F900000.0
sg9
F0.029001673173452314
sg10
F0.0
sg11
F947861.0
sg12
F1469.0
sg13
F506765.0
sg14
F51587.0
sg15
F0.0
sg16
I00
sg17
F-125000.0
sg18
F228763.0
sg19
F441096.0
sg20
F0.0
ssI89
(dp109
g2
F365038.0
sg3
F554422.0
sg4
F0.02763592670471613
sg5
F0.0
sg6
F2101364.0
sg7
F0.0
sg8
F1100000.0
sg9
F0.047109207708779445
sg10
F0.0
sg11
F3101279.0
sg12
F2189.0
sg13
F1623010.0
sg14
F540.0
sg15
F0.07075127644055434
sg16
I00
sg17
F0.0
sg18
F81364.0
sg19
F1478269.0
sg20
F0.0
ssI90
(dp110
g2
F0.0
sg3
F0.0
sg4
F0.06040268456375839
sg5
F0.0
sg6
F0.0
sg7
F0.0
sg8
F0.0
sg9
F0.06063947078280044
sg10
F0.0
sg11
F1691366.0
sg12
F720.0
sg13
F757301.0
sg14
F0.0
sg15
F0.07692307692307693
sg16
I00
sg17
F0.0
sg18
F0.0
sg19
F934065.0
sg20
F0.0
ssI91
(dp111
g2
F370448.0
sg3
F694862.0
sg4
F0.024628450106157114
sg5
F0.0
sg6
F4099771.0
sg7
F0.0
sg8
F2600000.0
sg9
F0.03495630461922597
sg10
F0.0
sg11
F1662855.0
sg12
F2228.0
sg13
F1104054.0
sg14
F297353.0
sg15
F0.5416666666666666
sg16
I00
sg17
F0.0
sg18
F137108.0
sg19
F558801.0
sg20
F0.0
ssI92
(dp112
g2
F0.0
sg3
F0.0
sg4
F0.0
sg5
F0.0
sg6
F148.0
sg7
F0.0
sg8
F0.0
sg9
F0.0
sg10
F0.0
sg11
F0.0
sg12
F0.0
sg13
F0.0
sg14
F0.0
sg15
F0.0
sg16
I00
sg17
F-103750.0
sg18
F148.0
sg19
F0.0
sg20
F103750.0
ssI93
(dp113
g2
F365788.0
sg3
F0.0
sg4
F0.04708798017348203
sg5
F0.0
sg6
F1061827.0
sg7
F0.0
sg8
F600000.0
sg9
F0.04665071770334928
sg10
F0.0
sg11
F585062.0
sg12
F702.0
sg13
F0.0
sg14
F1740.0
sg15
F0.034482758620689655
sg16
I00
sg17
F0.0
sg18
F94299.0
sg19
F585062.0
sg20
F0.0
ssI94
(dp114
g2
F0.0
sg3
F0.0
sg4
F0.0
sg5
F0.0
sg6
F2151.0
sg7
F0.0
sg8
F0.0
sg9
F0.0
sg10
F0.0
sg11
F0.0
sg12
F0.0
sg13
F0.0
sg14
F0.0
sg15
F0.0
sg16
I00
sg17
F-38346.0
sg18
F2151.0
sg19
F0.0
sg20
F38346.0
ssI95
(dp115
g2
F0.0
sg3
F0.0
sg4
F0.0
sg5
F1848227.0
sg6
F1848227.0
sg7
F0.0
sg8
F0.0
sg9
F0.0
sg10
F0.0
sg11
F955873.0
sg12
F22.0
sg13
F493489.0
sg14
F0.0
sg15
F0.0
sg16
I00
sg17
F0.0
sg18
F0.0
sg19
F462384.0
sg20
F0.0
ssI96
(dp116
g2
F0.0
sg3
F0.0
sg4
F0.0
sg5
F0.0
sg6
F0.0
sg7
F0.0
sg8
F0.0
sg9
F0.0
sg10
F0.0
sg11
F221141.0
sg12
F127.0
sg13
F59539.0
sg14
F0.0
sg15
F0.0
sg16
I00
sg17
F0.0
sg18
F0.0
sg19
F161602.0
sg20
F0.0
ssI97
(dp117
g2
F267093.0
sg3
F0.0
sg4
F0.0
sg5
F0.0
sg6
F628522.0
sg7
F0.0
sg8
F325000.0
sg9
F0.0
sg10
F0.0
sg11
F208510.0
sg12
F0.0
sg13
F0.0
sg14
F1411.0
sg15
F0.0
sg16
I00
sg17
F0.0
sg18
F35018.0
sg19
F208510.0
sg20
F0.0
ssI98
(dp118
g2
F251654.0
sg3
F1725545.0
sg4
F0.08823529411764706
sg5
F842924.0
sg6
F3202070.0
sg7
F0.0
sg8
F1100000.0
sg9
F0.07894736842105263
sg10
F0.0
sg11
F1416848.0
sg12
F114.0
sg13
F1056320.0
sg14
F947.0
sg15
F0.0
sg16
I00
sg17
F-719000.0
sg18
F0.0
sg19
F360528.0
sg20
F0.0
ssI99
(dp119
g2
F229284.0
sg3
F125000.0
sg4
F0.005018248175182482
sg5
F0.0
sg6
F812194.0
sg7
F0.0
sg8
F400000.0
sg9
F0.00581135449262405
sg10
F0.0
sg11
F597461.0
sg12
F395.0
sg13
F400478.0
sg14
F330.0
sg15
F0.044444444444444446
sg16
I00
sg17
F0.0
sg18
F57580.0
sg19
F196983.0
sg20
F0.0
ssI100
(dp120
g2
F0.0
sg3
F0.0
sg4
F0.0
sg5
F774401.0
sg6
F774401.0
sg7
F0.0
sg8
F0.0
sg9
F0.0
sg10
F-94556.0
sg11
F368705.0
sg12
F0.0
sg13
F0.0
sg14
F0.0
sg15
F0.0
sg16
I00
sg17
F0.0
sg18
F0.0
sg19
F463261.0
sg20
F0.0
ssI101
(dp121
g2
F329078.0
sg3
F100000.0
sg4
F0.016891891891891893
sg5
F77716.0
sg6
F1321557.0
sg7
F0.0
sg8
F750000.0
sg9
F0.02831715210355987
sg10
F0.0
sg11
F2606763.0
sg12
F856.0
sg13
F1637034.0
sg14
F972.0
sg15
F0.28846153846153844
sg16
I00
sg17
F0.0
sg18
F63791.0
sg19
F969729.0
sg20
F0.0
ssI102
(dp122
g2
F94941.0
sg3
F135836.0
sg4
F0.0
sg5
F0.0
sg6
F249787.0
sg7
F0.0
sg8
F0.0
sg9
F0.0
sg10
F0.0
sg11
F7307594.0
sg12
F0.0
sg13
F5266578.0
sg14
F176.0
sg15
F0.0
sg16
I00
sg17
F0.0
sg18
F18834.0
sg19
F2041016.0
sg20
F0.0
ssI103
(dp123
g2
F261879.0
sg3
F0.0
sg4
F0.0
sg5
F0.0
sg6
F3123383.0
sg7
F0.0
sg8
F1000000.0
sg9
F0.0
sg10
F0.0
sg11
F23817930.0
sg12
F0.0
sg13
F15364167.0
sg14
F1829457.0
sg15
F0.0
sg16
I00
sg17
F0.0
sg18
F32047.0
sg19
F8453763.0
sg20
F0.0
ssI104
(dp124
g2
F0.0
sg3
F0.0
sg4
F0.0
sg5
F0.0
sg6
F27942.0
sg7
F0.0
sg8
F0.0
sg9
F0.0
sg10
F0.0
sg11
F0.0
sg12
F0.0
sg13
F0.0
sg14
F0.0
sg15
F0.0
sg16
I00
sg17
F-101250.0
sg18
F27942.0
sg19
F0.0
sg20
F101250.0
ssI105
(dp125
g2
F655037.0
sg3
F0.0
sg4
F0.0077951002227171495
sg5
F0.0
sg6
F1386690.0
sg7
F400000.0
sg8
F300000.0
sg9
F0.007253886010362694
sg10
F0.0
sg11
F28798.0
sg12
F728.0
sg13
F28798.0
sg14
F0.0
sg15
F0.0
sg16
I00
sg17
F0.0
sg18
F31653.0
sg19
F0.0
sg20
F0.0
ssI106
(dp126
g2
F197091.0
sg3
F0.0
sg4
F0.049273021001615507
sg5
F1130036.0
sg6
F1737629.0
sg7
F0.0
sg8
F400000.0
sg9
F0.07465753424657534
sg10
F-409554.0
sg11
F880290.0
sg12
F742.0
sg13
F880290.0
sg14
F778.0
sg15
F0.21621621621621623
sg16
I00
sg17
F-33333.0
sg18
F43057.0
sg19
F409554.0
sg20
F0.0
ssI107
(dp127
g2
F0.0
sg3
F0.0
sg4
F0.0
sg5
F0.0
sg6
F0.0
sg7
F0.0
sg8
F0.0
sg9
F0.013513513513513514
sg10
F0.0
sg11
F47304.0
sg12
F3.0
sg13
F0.0
sg14
F0.0
sg15
F0.0625
sg16
I00
sg17
F0.0
sg18
F0.0
sg19
F47304.0
sg20
F0.0
ssI108
(dp128
g2
F0.0
sg3
F0.0
sg4
F0.0
sg5
F0.0
sg6
F0.0
sg7
F0.0
sg8
F0.0
sg9
F0.0
sg10
F0.0
sg11
F0.0
sg12
F12.0
sg13
F0.0
sg14
F0.0
sg15
F0.0
sg16
I00
sg17
F-17500.0
sg18
F0.0
sg19
F0.0
sg20
F17500.0
ssI109
(dp129
g2
F0.0
sg3
F0.0
sg4
F0.0
sg5
F564348.0
sg6
F564348.0
sg7
F0.0
sg8
F0.0
sg9
F0.0
sg10
F0.0
sg11
F1095040.0
sg12
F0.0
sg13
F886231.0
sg14
F0.0
sg15
F0.0
sg16
I00
sg17
F0.0
sg18
F0.0
sg19
F208809.0
sg20
F0.0
ssI110
(dp130
g2
F96840.0
sg3
F0.0
sg4
F0.12208258527827648
sg5
F0.0
sg6
F111529.0
sg7
F0.0
sg8
F0.0
sg9
F0.13372093023255813
sg10
F0.0
sg11
F7890324.0
sg12
F1063.0
sg13
F7509039.0
sg14
F0.0
sg15
F0.22171945701357465
sg16
I00
sg17
F0.0
sg18
F14689.0
sg19
F381285.0
sg20
F0.0
ssI111
(dp131
g2
F76399.0
sg3
F156250.0
sg4
F0.0
sg5
F51365.0
sg6
F394475.0
sg7
F0.0
sg8
F100000.0
sg9
F0.0
sg10
F-140264.0
sg11
F4221891.0
sg12
F0.0
sg13
F4160672.0
sg14
F202052.0
sg15
F0.0
sg16
I00
sg17
F-200000.0
sg18
F8409.0
sg19
F201483.0
sg20
F0.0
ssI112
(dp132
g2
F420636.0
sg3
F1617011.0
sg4
F0.04640883977900553
sg5
F0.0
sg6
F505050.0
sg7
F0.0
sg8
F1750000.0
sg9
F0.04983748645720477
sg10
F0.0
sg11
F22542539.0
sg12
F864.0
sg13
F19794175.0
sg14
F174839.0
sg15
F0.2222222222222222
sg16
I01
sg17
F-3504386.0
sg18
F46950.0
sg19
F2748364.0
sg20
F0.0
ssI113
(dp133
g2
F249201.0
sg3
F0.0
sg4
F0.02635542168674699
sg5
F214678.0
sg6
F1099100.0
sg7
F0.0
sg8
F700000.0
sg9
F0.058865248226950356
sg10
F0.0
sg11
F1918887.0
sg12
F1258.0
sg13
F1635238.0
sg14
F1950.0
sg15
F0.5853658536585366
sg16
I01
sg17
F-100000.0
sg18
F33271.0
sg19
F283649.0
sg20
F0.0
ssI114
(dp134
g2
F0.0
sg3
F0.0
sg4
F0.0
sg5
F0.0
sg6
F3750.0
sg7
F0.0
sg8
F0.0
sg9
F0.0
sg10
F0.0
sg11
F0.0
sg12
F0.0
sg13
F0.0
sg14
F0.0
sg15
F0.0
sg16
I00
sg17
F-121284.0
sg18
F0.0
sg19
F0.0
sg20
F125034.0
ssI115
(dp135
g2
F0.0
sg3
F0.0
sg4
F0.0
sg5
F0.0
sg6
F0.0
sg7
F0.0
sg8
F0.0
sg9
F0.0
sg10
F0.0
sg11
F759557.0
sg12
F0.0
sg13
F759557.0
sg14
F0.0
sg15
F0.0
sg16
I00
sg17
F0.0
sg18
F0.0
sg19
F0.0
sg20
F0.0
ssI116
(dp136
g2
F304110.0
sg3
F554422.0
sg4
F0.029183483390251473
sg5
F0.0
sg6
F3038702.0
sg7
F0.0
sg8
F2000000.0
sg9
F0.029989833954591663
sg10
F0.0
sg11
F2072035.0
sg12
F1730.0
sg13
F1441898.0
sg14
F1191.0
sg15
F0.030958597538232
sg16
I00
sg17
F0.0
sg18
F178979.0
sg19
F630137.0
sg20
F0.0
ssI117
(dp137
g2
F269076.0
sg3
F0.0
sg4
F0.0048848108786058485
sg5
F0.0
sg6
F1057548.0
sg7
F0.0
sg8
F650000.0
sg9
F0.00849425568320704
sg10
F0.0
sg11
F987001.0
sg12
F4527.0
sg13
F607837.0
sg14
F705.0
sg15
F0.053497942386831275
sg16
I00
sg17
F0.0
sg18
F137767.0
sg19
F379164.0
sg20
F0.0
ssI118
(dp138
g2
F248146.0
sg3
F422158.0
sg4
F0.007653061224489796
sg5
F187469.0
sg6
F1576511.0
sg7
F0.0
sg8
F600000.0
sg9
F0.009168704156479218
sg10
F0.0
sg11
F494136.0
sg12
F2477.0
sg13
F281073.0
sg14
F2401.0
sg15
F0.04411764705882353
sg16
I00
sg17
F0.0
sg18
F116337.0
sg19
F213063.0
sg20
F0.0
ssI119
(dp139
g2
F211844.0
sg3
F0.0
sg4
F0.057777777777777775
sg5
F0.0
sg6
F2003885.0
sg7
F0.0
sg8
F200000.0
sg9
F0.10227272727272728
sg10
F0.0
sg11
F2493616.0
sg12
F91.0
sg13
F1624396.0
sg14
F1573324.0
sg15
F0.358974358974359
sg16
I01
sg17
F-4167.0
sg18
F22884.0
sg19
F869220.0
sg20
F0.0
ssI120
(dp140
g2
F0.0
sg3
F0.0
sg4
F0.0636215334420881
sg5
F0.0
sg6
F0.0
sg7
F0.0
sg8
F0.0
sg9
F0.08934169278996865
sg10
F0.0
sg11
F1832468.0
sg12
F583.0
sg13
F1426469.0
sg14
F0.0
sg15
F0.72
sg16
I00
sg17
F0.0
sg18
F0.0
sg19
F405999.0
sg20
F0.0
ssI121
(dp141
g2
F428780.0
sg3
F554422.0
sg4
F0.008785691873235017
sg5
F0.0
sg6
F4335388.0
sg7
F0.0
sg8
F1500000.0
sg9
F0.01555352241537054
sg10
F0.0
sg11
F3128982.0
sg12
F2103.0
sg13
F1835558.0
sg14
F1852186.0
sg15
F0.25
sg16
I00
sg17
F0.0
sg18
F0.0
sg19
F1293424.0
sg20
F0.0
ssI122
(dp142
g2
F1111258.0
sg3
F1920000.0
sg4
F0.0242624758753791
sg5
F0.0
sg6
F8682716.0
sg7
F0.0
sg8
F5600000.0
sg9
F0.03159303882195449
sg10
F0.0
sg11
F26093672.0
sg12
F2042.0
sg13
F19250000.0
sg14
F22122.0
sg15
F0.2777777777777778
sg16
I01
sg17
F0.0
sg18
F29336.0
sg19
F6843672.0
sg20
F0.0
ssI123
(dp143
g2
F239502.0
sg3
F0.0
sg4
F0.0
sg5
F0.0
sg6
F1112087.0
sg7
F0.0
sg8
F500000.0
sg9
F0.0
sg10
F0.0
sg11
F511734.0
sg12
F0.0
sg13
F0.0
sg14
F356071.0
sg15
F0.0
sg16
I00
sg17
F0.0
sg18
F16514.0
sg19
F511734.0
sg20
F0.0
ssI124
(dp144
g2
F162779.0
sg3
F554422.0
sg4
F0.0
sg5
F181993.0
sg6
F999356.0
sg7
F0.0
sg8
F100000.0
sg9
F0.0
sg10
F0.0
sg11
F1362375.0
sg12
F0.0
sg13
F1362375.0
sg14
F162.0
sg15
F0.0
sg16
I00
sg17
F0.0
sg18
F0.0
sg19
F0.0
sg20
F0.0
ssI125
(dp145
g2
F257486.0
sg3
F476451.0
sg4
F0.013978088401964487
sg5
F0.0
sg6
F1545059.0
sg7
F0.0
sg8
F700000.0
sg9
F0.0186219739292365
sg10
F0.0
sg11
F698920.0
sg12
F2565.0
sg13
F0.0
sg14
F111122.0
sg15
F0.34210526315789475
sg16
I00
sg17
F0.0
sg18
F0.0
sg19
F698920.0
sg20
F0.0
ssI126
(dp146
g2
F265214.0
sg3
F0.0
sg4
F0.0
sg5
F227449.0
sg6
F1092663.0
sg7
F0.0
sg8
F600000.0
sg9
F0.0
sg10
F0.0
sg11
F3745048.0
sg12
F300.0
sg13
F3181250.0
sg14
F0.0
sg15
F0.0
sg16
I00
sg17
F0.0
sg18
F0.0
sg19
F563798.0
sg20
F0.0
ssI127
(dp147
g2
F222093.0
sg3
F200000.0
sg4
F0.0
sg5
F16586.0
sg6
F911453.0
sg7
F0.0
sg8
F0.0
sg9
F0.0
sg10
F0.0
sg11
F4817796.0
sg12
F73.0
sg13
F4452476.0
sg14
F426629.0
sg15
F0.0
sg16
I00
sg17
F0.0
sg18
F46145.0
sg19
F365320.0
sg20
F0.0
ssI128
(dp148
g2
F247338.0
sg3
F275000.0
sg4
F0.021739130434782608
sg5
F0.0
sg6
F399393.0
sg7
F0.0
sg8
F300000.0
sg9
F0.04384133611691023
sg10
F0.0
sg11
F1168042.0
sg12
F379.0
sg13
F591250.0
sg14
F152055.0
sg15
F0.5789473684210527
sg16
I00
sg17
F-575000.0
sg18
F0.0
sg19
F576792.0
sg20
F0.0
ssI129
(dp149
g2
F288589.0
sg3
F0.0
sg4
F0.10810810810810811
sg5
F0.0
sg6
F1130461.0
sg7
F0.0
sg8
F788750.0
sg9
F0.09302325581395349
sg10
F0.0
sg11
F0.0
sg12
F41.0
sg13
F0.0
sg14
F0.0
sg15
F0.0
sg16
I00
sg17
F0.0
sg18
F53122.0
sg19
F0.0
sg20
F0.0
ssI130
(dp150
g2
F0.0
sg3
F0.0
sg4
F0.0
sg5
F0.0
sg6
F228656.0
sg7
F0.0
sg8
F0.0
sg9
F0.0
sg10
F0.0
sg11
F0.0
sg12
F0.0
sg13
F0.0
sg14
F0.0
sg15
F0.0
sg16
I00
sg17
F-36666.0
sg18
F228656.0
sg19
F0.0
sg20
F36666.0
ssI131
(dp151
g2
F0.0
sg3
F0.0
sg4
F0.0
sg5
F0.0
sg6
F213071.0
sg7
F0.0
sg8
F0.0
sg9
F0.0
sg10
F0.0
sg11
F0.0
sg12
F0.0
sg13
F0.0
sg14
F0.0
sg15
F0.0
sg16
I00
sg17
F0.0
sg18
F103773.0
sg19
F0.0
sg20
F109298.0
ssI132
(dp152
g2
F357091.0
sg3
F540751.0
sg4
F0.02533532041728763
sg5
F0.0
sg6
F1798780.0
sg7
F0.0
sg8
F850000.0
sg9
F0.0208078335373317
sg10
F0.0
sg11
F5898997.0
sg12
F215.0
sg13
F4346544.0
sg14
F2.0
sg15
F0.0
sg16
I00
sg17
F0.0
sg18
F50936.0
sg19
F1552453.0
sg20
F0.0
ssI133
(dp153
g2
F0.0
sg3
F0.0
sg4
F0.0
sg5
F53625.0
sg6
F87410.0
sg7
F0.0
sg8
F0.0
sg9
F0.0
sg10
F0.0
sg11
F1030329.0
sg12
F0.0
sg13
F1030329.0
sg14
F0.0
sg15
F0.0
sg16
I00
sg17
F0.0
sg18
F33785.0
sg19
F0.0
sg20
F0.0
ssI134
(dp154
g2
F259996.0
sg3
F200000.0
sg4
F0.055
sg5
F831299.0
sg6
F1034395.0
sg7
F0.0
sg8
F325000.0
sg9
F0.06744186046511629
sg10
F0.0
sg11
F2056427.0
sg12
F337.0
sg13
F1668260.0
sg14
F1425.0
sg15
F0.23333333333333334
sg16
I00
sg17
F-583325.0
sg18
F0.0
sg19
F388167.0
sg20
F0.0
ssI135
(dp155
g2
F63744.0
sg3
F256191.0
sg4
F0.0
sg5
F0.0
sg6
F762135.0
sg7
F0.0
sg8
F0.0
sg9
F0.0
sg10
F0.0
sg11
F384930.0
sg12
F0.0
sg13
F0.0
sg14
F401130.0
sg15
F0.0
sg16
I00
sg17
F-10800.0
sg18
F51870.0
sg19
F384930.0
sg20
F0.0
ssI136
(dp156
g2
F0.0
sg3
F0.0
sg4
F0.0
sg5
F0.0
sg6
F0.0
sg7
F0.0
sg8
F0.0
sg9
F0.0
sg10
F0.0
sg11
F98718.0
sg12
F0.0
sg13
F98718.0
sg14
F0.0
sg15
F0.0
sg16
I00
sg17
F0.0
sg18
F0.0
sg19
F0.0
sg20
F0.0
ssI137
(dp157
g2
F510364.0
sg3
F808346.0
sg4
F0.03090214321315833
sg5
F0.0
sg6
F4677574.0
sg7
F0.0
sg8
F3000000.0
sg9
F0.03193916349809886
sg10
F0.0
sg11
F6079137.0
sg12
F3920.0
sg13
F3282960.0
sg14
F301026.0
sg15
F0.04316546762589928
sg16
I00
sg17
F0.0
sg18
F57838.0
sg19
F2796177.0
sg20
F0.0
ssI138
(dp158
g2
F317543.0
sg3
F0.0
sg4
F0.0
sg5
F0.0
sg6
F1934359.0
sg7
F0.0
sg8
F450000.0
sg9
F0.0
sg10
F0.0
sg11
F15144123.0
sg12
F0.0
sg13
F1297049.0
sg14
F1085463.0
sg15
F0.0
sg16
I00
sg17
F0.0
sg18
F81353.0
sg19
F13847074.0
sg20
F0.0
ssI139
(dp159
g2
F0.0
sg3
F0.0
sg4
F0.0
sg5
F0.0
sg6
F84992.0
sg7
F0.0
sg8
F0.0
sg9
F0.0
sg10
F0.0
sg11
F0.0
sg12
F0.0
sg13
F0.0
sg14
F0.0
sg15
F0.0
sg16
I00
sg17
F-25000.0
sg18
F1413.0
sg19
F0.0
sg20
F108579.0
ssI140
(dp160
g2
F0.0
sg3
F0.0
sg4
F0.0
sg5
F0.0
sg6
F189583.0
sg7
F0.0
sg8
F0.0
sg9
F0.0
sg10
F0.0
sg11
F0.0
sg12
F0.0
sg13
F0.0
sg14
F189583.0
sg15
F0.0
sg16
I00
sg17
F0.0
sg18
F0.0
sg19
F0.0
sg20
F0.0
ssI141
(dp161
g2
F0.0
sg3
F0.0
sg4
F0.0
sg5
F0.0
sg6
F0.0
sg7
F0.0
sg8
F0.0
sg9
F0.0
sg10
F0.0
sg11
F139130.0
sg12
F0.0
sg13
F139130.0
sg14
F0.0
sg15
F0.0
sg16
I00
sg17
F0.0
sg18
F0.0
sg19
F0.0
sg20
F0.0
ssI142
(dp162
g2
F158403.0
sg3
F0.0
sg4
F0.0
sg5
F0.0
sg6
F360300.0
sg7
F0.0
sg8
F0.0
sg9
F0.0
sg10
F0.0
sg11
F11884758.0
sg12
F0.0
sg13
F8308552.0
sg14
F147950.0
sg15
F0.0
sg16
I01
sg17
F0.0
sg18
F53947.0
sg19
F3576206.0
sg20
F0.0
ssI143
(dp163
g2
F0.0
sg3
F0.0
sg4
F0.0
sg5
F0.0
sg6
F55097.0
sg7
F0.0
sg8
F0.0
sg9
F0.0
sg10
F0.0
sg11
F192758.0
sg12
F0.0
sg13
F192758.0
sg14
F0.0
sg15
F0.0
sg16
I00
sg17
F0.0
sg18
F55097.0
sg19
F0.0
sg20
F0.0
ss.