(lp0
S'poi'
p1
aS'salary'
p2
aS'deferral_payments'
p3
aS'total_payments'
p4
aS'exercised_stock_options'
p5
aS'bonus'
p6
aS'restricted_stock'
p7
aS'shared_receipt_with_poi'
p8
aS'restricted_stock_deferred'
p9
aS'total_stock_value'
p10
aS'expenses'
p11
aS'loan_advances'
p12
aS'other'
p13
aS'director_fees'
p14
aS'deferred_income'
p15
aS'long_term_incentive'
p16
aS'poi_ratio'
p17
aS'to_poi_ratio'
p18
aS'from_poi_ratio'
p19
a.